(dp1
S'OriginalConfig'
p2
ccopy_reg
_reconstructor
p3
(cWMCore.Configuration
Configuration
p4
c__builtin__
object
p5
NtRp6
(dp7
S'Site'
p8
g3
(cWMCore.Configuration
ConfigSection
p9
g5
NtRp10
(dp11
S'_internal_skipChecks'
p12
I00
sS'_internal_documentation'
p13
S''
sS'_internal_settings'
p14
c__builtin__
set
p15
((lp16
S'storageSite'
p17
atRp18
sS'_internal_name'
p19
g8
sS'_internal_docstrings'
p20
(dp21
sS'_internal_children'
p22
g15
((ltRp23
sg17
S'T2_CH_CERN'
p24
sS'_internal_parent_ref'
p25
NsbsS'_internal_sections'
p26
(lp27
S'General'
p28
aS'JobType'
p29
aS'Data'
p30
ag8
aS'User'
p31
aS'Debug'
p32
asg28
g3
(g9
g5
NtRp33
(dp34
S'transferLogs'
p35
I01
sg12
I00
sg13
S''
sg14
g15
((lp36
g35
aS'transferOutputs'
p37
aS'workArea'
p38
aS'requestName'
p39
atRp40
sg19
g28
sg20
(dp41
sg37
I01
sg22
g15
((ltRp42
sg39
S'MC_Crab3_CPPF'
p43
sg25
Nsg38
S'Crab3_CPPFUser'
p44
sbsS'_internal_webapps'
p45
(lp46
sg31
g3
(g9
g5
NtRp47
(dp48
g12
I00
sg13
S''
sg14
g15
((ltRp49
sg19
g31
sg20
(dp50
sg22
g15
((ltRp51
sg25
NsbsS'_internal_components'
p52
(lp53
sg32
g3
(g9
g5
NtRp54
(dp55
g12
I00
sg13
S''
sg14
g15
((ltRp56
sg19
g32
sg20
(dp57
sg22
g15
((ltRp58
sg25
Nsbsg30
g3
(g9
g5
NtRp59
(dp60
S'ignoreLocality'
p61
I01
sg12
I00
sS'unitsPerJob'
p62
I10000
sg13
S''
sg14
g15
((lp63
S'outputDatasetTag'
p64
aS'publication'
p65
ag62
ag61
aS'splitting'
p66
aS'outLFNDirBase'
p67
aS'outputPrimaryDataset'
p68
aS'totalUnits'
p69
atRp70
sg67
S'/store/user/masegura/'
p71
sg19
g30
sg66
S'EventBased'
p72
sg20
(dp73
sg64
S'CRAB3_OCT2017_MC_Generation'
p74
sg22
g15
((ltRp75
sg65
I01
sg68
S'MinBias'
p76
sg25
Nsg69
I1000000
sbsg29
g3
(g9
g5
NtRp77
(dp78
g12
I00
sg13
S''
sg14
g15
((lp79
S'psetName'
p80
aS'pluginName'
p81
atRp82
sg19
g29
sg20
(dp83
sg81
S'PrivateMC'
p84
sg22
g15
((ltRp85
sg80
S'/afs/cern.ch/user/m/masegura/CMSSW_9_2_5_patch2/src/L1Trigger/L1TMuonCPPF/test/RunCPPF_GEN_MC.py'
p86
sg25
NsbsbsS'voGroup'
p87
S''
sS'Server'
p88
S'cmsweb.cern.ch'
p89
sS'instance'
p90
S'prod'
p91
sS'RequestName'
p92
V171012_113201:masegura_crab_MC_Crab3_CPPF
p93
sS'voRole'
p94
S'NULL'
p95
sS'Port'
p96
S''
s.